; Function Attrs: nounwind uwtable
define noalias noundef ptr @Gia_ManGetDangling(ptr noundef readonly captures(none) %0) local_unnamed_addr #2 {
  %2 = getelementptr i8, ptr %0, i64 32
  %3 = getelementptr inbounds nuw i8, ptr %0, i64 24
  %4 = load i32, ptr %3, align 8
  %5 = icmp sgt i32 %4, 0
  br i1 %5, label %.lr.ph.preheader, label %.critedge

.lr.ph.preheader:                                 ; preds = %1
  %.val3054 = load ptr, ptr %2, align 8
  %.not55 = icmp eq ptr %.val3054, null
  br i1 %.not55, label %.critedge, label %.lr.ph57

.lr.ph:                                           ; preds = %26
  %.val30 = load ptr, ptr %2, align 8
  %6 = getelementptr inbounds nuw %struct.Gia_Obj_t_, ptr %.val30, i64 %indvars.iv.next
  %.not = icmp eq ptr %.val30, null
  br i1 %.not, label %.critedge, label %.lr.ph57, !llvm.loop !50

.lr.ph57:                                         ; preds = %.lr.ph.preheader, %.lr.ph
  %7 = phi ptr [ %6, %.lr.ph ], [ %.val3054, %.lr.ph.preheader ]
  %indvars.iv56 = phi i64 [ %indvars.iv.next, %.lr.ph ], [ 0, %.lr.ph.preheader ]
  %8 = load i64, ptr %7, align 4
  %9 = and i64 %8, -1073741825
  store i64 %9, ptr %7, align 4
  %10 = and i64 %8, 2147483648
  %.not.i = icmp eq i64 %10, 0
  %11 = and i64 %8, 536870911
  %12 = icmp ne i64 %11, 536870911
  %narrow.i = and i1 %.not.i, %12
  br i1 %narrow.i, label %13, label %21

13:                                               ; preds = %.lr.ph57
  %14 = sub nsw i64 0, %11
  %15 = getelementptr inbounds %struct.Gia_Obj_t_, ptr %7, i64 %14
  %16 = load i64, ptr %15, align 4
  %17 = or i64 %16, 1073741824
  store i64 %17, ptr %15, align 4
  %18 = load i64, ptr %7, align 4
  %19 = lshr i64 %18, 32
  %20 = and i64 %19, 536870911
  br label %.sink.split

21:                                               ; preds = %.lr.ph57
  %.not.i34 = icmp ne i64 %10, 0
  %narrow.i35 = and i1 %.not.i34, %12
  br i1 %narrow.i35, label %.sink.split, label %26

.sink.split:                                      ; preds = %21, %13
  %.sink = phi i64 [ %20, %13 ], [ %11, %21 ]
  %22 = sub nsw i64 0, %.sink
  %23 = getelementptr inbounds %struct.Gia_Obj_t_, ptr %7, i64 %22
  %24 = load i64, ptr %23, align 4
  %25 = or i64 %24, 1073741824
  store i64 %25, ptr %23, align 4
  br label %26

26:                                               ; preds = %.sink.split, %21
  %indvars.iv.next = add nuw nsw i64 %indvars.iv56, 1
  %27 = load i32, ptr %3, align 8
  %28 = sext i32 %27 to i64
  %29 = icmp slt i64 %indvars.iv.next, %28
  br i1 %29, label %.lr.ph, label %.critedge, !llvm.loop !50

.critedge:                                        ; preds = %26, %.lr.ph, %.lr.ph.preheader, %1
  %30 = phi i32 [ %4, %1 ], [ %4, %.lr.ph.preheader ], [ %27, %.lr.ph ], [ %27, %26 ]
  %31 = tail call noalias dereferenceable_or_null(16) ptr @malloc(i64 noundef 16) #40
  %32 = getelementptr inbounds nuw i8, ptr %31, i64 4
  store i32 0, ptr %32, align 4
  store i32 100, ptr %31, align 8
  %33 = tail call noalias dereferenceable_or_null(400) ptr @malloc(i64 noundef 400) #40
  %34 = getelementptr inbounds nuw i8, ptr %31, i64 8
  store ptr %33, ptr %34, align 8
  %35 = icmp sgt i32 %30, 0
  br i1 %35, label %.lr.ph43, label %Gia_ManCleanMark0.exit

.lr.ph43:                                         ; preds = %.critedge, %72
  %36 = phi i32 [ %73, %72 ], [ %30, %.critedge ]
  %indvars.iv47 = phi i64 [ %indvars.iv.next48, %72 ], [ 0, %.critedge ]
  %.val = load ptr, ptr %2, align 8
  %.not25 = icmp eq ptr %.val, null
  br i1 %.not25, label %.critedge2, label %37

37:                                               ; preds = %.lr.ph43
  %38 = getelementptr inbounds nuw %struct.Gia_Obj_t_, ptr %.val, i64 %indvars.iv47
  %.val31 = load i64, ptr %38, align 4
  %39 = and i64 %.val31, 536870911
  %40 = icmp ne i64 %39, 536870911
  %41 = and i64 %.val31, 3221225472
  %42 = icmp eq i64 %41, 0
  %or.cond = and i1 %42, %40
  br i1 %or.cond, label %43, label %72

43:                                               ; preds = %37
  %44 = load i32, ptr %32, align 4
  %45 = load i32, ptr %31, align 8
  %46 = icmp eq i32 %44, %45
  br i1 %46, label %47, label %.Vec_IntGrow.exit10_crit_edge.i

.Vec_IntGrow.exit10_crit_edge.i:                  ; preds = %43
  %.pre.i = load ptr, ptr %34, align 8
  br label %Vec_IntPush.exit

47:                                               ; preds = %43
  %48 = icmp slt i32 %44, 16
  br i1 %48, label %49, label %56

49:                                               ; preds = %47
  %50 = load ptr, ptr %34, align 8
  %.not9.i.i = icmp eq ptr %50, null
  br i1 %.not9.i.i, label %53, label %51

51:                                               ; preds = %49
  %52 = tail call dereferenceable_or_null(64) ptr @realloc(ptr noundef nonnull %50, i64 noundef 64) #39
  br label %Vec_IntGrow.exit.i

53:                                               ; preds = %49
  %54 = tail call noalias dereferenceable_or_null(64) ptr @malloc(i64 noundef 64) #40
  br label %Vec_IntGrow.exit.i

Vec_IntGrow.exit.i:                               ; preds = %53, %51
  %55 = phi ptr [ %52, %51 ], [ %54, %53 ]
  store ptr %55, ptr %34, align 8
  store i32 16, ptr %31, align 8
  br label %Vec_IntPush.exit

56:                                               ; preds = %47
  %57 = shl nuw nsw i32 %44, 1
  %58 = load ptr, ptr %34, align 8
  %.not9.i9.i = icmp eq ptr %58, null
  %59 = zext nneg i32 %57 to i64
  %60 = shl nuw nsw i64 %59, 2
  br i1 %.not9.i9.i, label %63, label %61

61:                                               ; preds = %56
  %62 = tail call ptr @realloc(ptr noundef nonnull %58, i64 noundef %60) #39
  br label %65

63:                                               ; preds = %56
  %64 = tail call noalias ptr @malloc(i64 noundef %60) #40
  br label %65

65:                                               ; preds = %63, %61
  %66 = phi ptr [ %62, %61 ], [ %64, %63 ]
  store ptr %66, ptr %34, align 8
  store i32 %57, ptr %31, align 8
  br label %Vec_IntPush.exit

Vec_IntPush.exit:                                 ; preds = %.Vec_IntGrow.exit10_crit_edge.i, %Vec_IntGrow.exit.i, %65
  %67 = phi ptr [ %.pre.i, %.Vec_IntGrow.exit10_crit_edge.i ], [ %66, %65 ], [ %55, %Vec_IntGrow.exit.i ]
  %68 = add nsw i32 %44, 1
  store i32 %68, ptr %32, align 4
  %69 = sext i32 %44 to i64
  %70 = getelementptr inbounds i32, ptr %67, i64 %69
  %71 = trunc nuw nsw i64 %indvars.iv47 to i32
  store i32 %71, ptr %70, align 4
  %.pre = load i32, ptr %3, align 8
  br label %72

72:                                               ; preds = %37, %Vec_IntPush.exit
  %73 = phi i32 [ %36, %37 ], [ %.pre, %Vec_IntPush.exit ]
  %indvars.iv.next48 = add nuw nsw i64 %indvars.iv47, 1
  %74 = sext i32 %73 to i64
  %75 = icmp slt i64 %indvars.iv.next48, %74
  br i1 %75, label %.lr.ph43, label %.critedge2, !llvm.loop !51

.critedge2:                                       ; preds = %.lr.ph43, %72
  %.lcssa.ph = phi i32 [ %36, %.lr.ph43 ], [ %73, %72 ]
  %76 = icmp sgt i32 %.lcssa.ph, 0
  br i1 %76, label %.lr.ph.i, label %Gia_ManCleanMark0.exit

.lr.ph.i:                                         ; preds = %.critedge2, %77
  %indvars.iv.i = phi i64 [ %indvars.iv.next.i, %77 ], [ 0, %.critedge2 ]
  %.val.i = load ptr, ptr %2, align 8
  %.not.i38 = icmp eq ptr %.val.i, null
  br i1 %.not.i38, label %Gia_ManCleanMark0.exit, label %77

77:                                               ; preds = %.lr.ph.i
  %78 = getelementptr inbounds nuw %struct.Gia_Obj_t_, ptr %.val.i, i64 %indvars.iv.i
  %79 = load i64, ptr %78, align 4
  %80 = and i64 %79, -1073741825
  store i64 %80, ptr %78, align 4
  %indvars.iv.next.i = add nuw nsw i64 %indvars.iv.i, 1
  %81 = load i32, ptr %3, align 8
  %82 = sext i32 %81 to i64
  %83 = icmp slt i64 %indvars.iv.next.i, %82
  br i1 %83, label %.lr.ph.i, label %Gia_ManCleanMark0.exit, !llvm.loop !10

Gia_ManCleanMark0.exit:                           ; preds = %.lr.ph.i, %77, %.critedge, %.critedge2
  ret ptr %31
}